; ModuleID = '61/611.c'
source_filename = "61/611.c"
target datalayout = "e-m:e-p270:32:32-p271:32:32-p272:64:64-i64:64-f80:128-n8:16:32:64-S128"
target triple = "x86_64-pc-linux-gnu"

@.str = private unnamed_addr constant [3 x i8] c"%d\00", align 1
@.str.1 = private unnamed_addr constant [2 x i8] c"1\00", align 1
@.str.2 = private unnamed_addr constant [4 x i8] c"%d\0A\00", align 1

; Function Attrs: noinline nounwind uwtable
define dso_local i32 @main() #0 {
  %1 = alloca i32, align 4
  %2 = alloca i32, align 4
  %3 = alloca i32, align 4
  %4 = alloca i32, align 4
  %5 = alloca i32, align 4
  %6 = alloca i32, align 4
  %7 = alloca i32, align 4
  %8 = alloca [10000 x i32], align 16
  store i32 0, i32* %1, align 4
  store i32 1, i32* %7, align 4
  %9 = call i32 (i8*, ...) @__isoc99_scanf(i8* getelementptr inbounds ([3 x i8], [3 x i8]* @.str, i64 0, i64 0), i32* %2)
  br label %10

10:                                               ; preds = %54, %0
  %11 = load i32, i32* %7, align 4
  %12 = load i32, i32* %2, align 4
  %13 = icmp sle i32 %11, %12
  br i1 %13, label %14, label %57

14:                                               ; preds = %10
  %15 = call i32 (i8*, ...) @__isoc99_scanf(i8* getelementptr inbounds ([3 x i8], [3 x i8]* @.str, i64 0, i64 0), i32* %3)
  %16 = getelementptr inbounds [10000 x i32], [10000 x i32]* %8, i64 0, i64 0
  store i32 1, i32* %16, align 16
  %17 = getelementptr inbounds [10000 x i32], [10000 x i32]* %8, i64 0, i64 1
  store i32 1, i32* %17, align 4
  %18 = load i32, i32* %3, align 4
  %19 = icmp eq i32 %18, 1
  br i1 %19, label %23, label %20

20:                                               ; preds = %14
  %21 = load i32, i32* %3, align 4
  %22 = icmp eq i32 %21, 2
  br i1 %22, label %23, label %25

23:                                               ; preds = %20, %14
  %24 = call i32 (i8*, ...) @printf(i8* getelementptr inbounds ([2 x i8], [2 x i8]* @.str.1, i64 0, i64 0))
  br label %54

25:                                               ; preds = %20
  store i32 2, i32* %4, align 4
  br label %26

26:                                               ; preds = %30, %25
  %27 = load i32, i32* %4, align 4
  %28 = load i32, i32* %3, align 4
  %29 = icmp slt i32 %27, %28
  br i1 %29, label %30, label %47

30:                                               ; preds = %26
  %31 = load i32, i32* %4, align 4
  %32 = sub nsw i32 %31, 1
  %33 = sext i32 %32 to i64
  %34 = getelementptr inbounds [10000 x i32], [10000 x i32]* %8, i64 0, i64 %33
  %35 = load i32, i32* %34, align 4
  %36 = load i32, i32* %4, align 4
  %37 = sub nsw i32 %36, 2
  %38 = sext i32 %37 to i64
  %39 = getelementptr inbounds [10000 x i32], [10000 x i32]* %8, i64 0, i64 %38
  %40 = load i32, i32* %39, align 4
  %41 = add nsw i32 %35, %40
  %42 = load i32, i32* %4, align 4
  %43 = sext i32 %42 to i64
  %44 = getelementptr inbounds [10000 x i32], [10000 x i32]* %8, i64 0, i64 %43
  store i32 %41, i32* %44, align 4
  %45 = load i32, i32* %4, align 4
  %46 = add nsw i32 %45, 1
  store i32 %46, i32* %4, align 4
  br label %26

47:                                               ; preds = %26
  %48 = load i32, i32* %4, align 4
  %49 = sub nsw i32 %48, 1
  %50 = sext i32 %49 to i64
  %51 = getelementptr inbounds [10000 x i32], [10000 x i32]* %8, i64 0, i64 %50
  %52 = load i32, i32* %51, align 4
  %53 = call i32 (i8*, ...) @printf(i8* getelementptr inbounds ([4 x i8], [4 x i8]* @.str.2, i64 0, i64 0), i32 %52)
  br label %54

54:                                               ; preds = %47, %23
  %55 = load i32, i32* %7, align 4
  %56 = add nsw i32 %55, 1
  store i32 %56, i32* %7, align 4
  br label %10

57:                                               ; preds = %10
  ret i32 0
}

declare dso_local i32 @__isoc99_scanf(i8*, ...) #1

declare dso_local i32 @printf(i8*, ...) #1


!llvm.module.flags = !{!0}
!llvm.ident = !{!1}

!0 = !{i32 1, !"wchar_size", i32 4}
!1 = !{!"clang version 10.0.0-4ubuntu1 "}
